; Function Attrs: nounwind uwtable
define dso_local range(i32 0, 2) i32 @WPACKET_init_der(ptr noundef captures(none) %0, ptr noundef %1, i64 noundef %2) local_unnamed_addr #0 {
  %4 = icmp ne ptr %1, null
  %5 = icmp ne i64 %2, 0
  %6 = and i1 %4, %5
  br i1 %6, label %7, label %wpacket_intern_init_len.exit, !prof !14

7:                                                ; preds = %3
  %8 = getelementptr inbounds nuw i8, ptr %0, i64 8
  store ptr %1, ptr %8, align 8, !tbaa !20
  store ptr null, ptr %0, align 8, !tbaa !17
  %9 = getelementptr inbounds nuw i8, ptr %0, i64 32
  store i64 %2, ptr %9, align 8, !tbaa !15
  %10 = getelementptr inbounds nuw i8, ptr %0, i64 48
  %11 = load i8, ptr %10, align 8
  %12 = or i8 %11, 1
  store i8 %12, ptr %10, align 8
  %13 = getelementptr inbounds nuw i8, ptr %0, i64 16
  tail call void @llvm.memset.p0.i64(ptr noundef nonnull align 8 dereferenceable(16) %13, i8 0, i64 16, i1 false)
  %14 = tail call noalias ptr @CRYPTO_zalloc(i64 noundef 40, ptr noundef nonnull @.str, i32 noundef 110) #12
  %15 = getelementptr inbounds nuw i8, ptr %0, i64 40
  store ptr %14, ptr %15, align 8, !tbaa !4
  %16 = icmp ne ptr %14, null
  %spec.select = zext i1 %16 to i32
  br label %wpacket_intern_init_len.exit

wpacket_intern_init_len.exit:                     ; preds = %7, %3
  %.0 = phi i32 [ 0, %3 ], [ %spec.select, %7 ]
  ret i32 %.0
}